; ModuleID = '13/1161.c'
source_filename = "13/1161.c"
target datalayout = "e-m:e-p270:32:32-p271:32:32-p272:64:64-i64:64-f80:128-n8:16:32:64-S128"
target triple = "x86_64-pc-linux-gnu"

@.str = private unnamed_addr constant [3 x i8] c"%d\00", align 1
@.str.1 = private unnamed_addr constant [4 x i8] c" %d\00", align 1

; Function Attrs: noinline nounwind uwtable
define dso_local i32 @main() #0 {
  %1 = alloca i32, align 4
  %2 = alloca i32, align 4
  %3 = alloca i8*, align 8
  %4 = alloca i64, align 8
  %5 = alloca i64, align 8
  %6 = alloca i32, align 4
  %7 = alloca i32, align 4
  %8 = alloca i32, align 4
  %9 = alloca i32, align 4
  %10 = alloca i32, align 4
  %11 = alloca i32, align 4
  store i32 0, i32* %1, align 4
  %12 = call i32 (i8*, ...) @__isoc99_scanf(i8* getelementptr inbounds ([3 x i8], [3 x i8]* @.str, i64 0, i64 0), i32* %2)
  %13 = load i32, i32* %2, align 4
  %14 = zext i32 %13 to i64
  %15 = call i8* @llvm.stacksave()
  store i8* %15, i8** %3, align 8
  %16 = alloca i32, i64 %14, align 16
  store i64 %14, i64* %4, align 8
  %17 = load i32, i32* %2, align 4
  %18 = zext i32 %17 to i64
  %19 = alloca i32, i64 %18, align 16
  store i64 %18, i64* %5, align 8
  store i32 0, i32* %10, align 4
  store i32 0, i32* %6, align 4
  br label %20

20:                                               ; preds = %29, %0
  %21 = load i32, i32* %6, align 4
  %22 = load i32, i32* %2, align 4
  %23 = icmp sle i32 %21, %22
  br i1 %23, label %24, label %32

24:                                               ; preds = %20
  %25 = load i32, i32* %6, align 4
  %26 = sext i32 %25 to i64
  %27 = getelementptr inbounds i32, i32* %16, i64 %26
  %28 = call i32 (i8*, ...) @__isoc99_scanf(i8* getelementptr inbounds ([3 x i8], [3 x i8]* @.str, i64 0, i64 0), i32* %27)
  br label %29

29:                                               ; preds = %24
  %30 = load i32, i32* %6, align 4
  %31 = add nsw i32 %30, 1
  store i32 %31, i32* %6, align 4
  br label %20

32:                                               ; preds = %20
  store i32 0, i32* %6, align 4
  br label %33

33:                                               ; preds = %71, %32
  %34 = load i32, i32* %6, align 4
  %35 = load i32, i32* %2, align 4
  %36 = icmp slt i32 %34, %35
  br i1 %36, label %37, label %74

37:                                               ; preds = %33
  store i32 1, i32* %11, align 4
  store i32 1, i32* %7, align 4
  br label %38

38:                                               ; preds = %54, %37
  %39 = load i32, i32* %7, align 4
  %40 = load i32, i32* %10, align 4
  %41 = icmp sle i32 %39, %40
  br i1 %41, label %42, label %57

42:                                               ; preds = %38
  %43 = load i32, i32* %6, align 4
  %44 = sext i32 %43 to i64
  %45 = getelementptr inbounds i32, i32* %16, i64 %44
  %46 = load i32, i32* %45, align 4
  %47 = load i32, i32* %7, align 4
  %48 = sext i32 %47 to i64
  %49 = getelementptr inbounds i32, i32* %19, i64 %48
  %50 = load i32, i32* %49, align 4
  %51 = icmp eq i32 %46, %50
  br i1 %51, label %52, label %53

52:                                               ; preds = %42
  store i32 0, i32* %11, align 4
  br label %57

53:                                               ; preds = %42
  br label %54

54:                                               ; preds = %53
  %55 = load i32, i32* %7, align 4
  %56 = add nsw i32 %55, 1
  store i32 %56, i32* %7, align 4
  br label %38

57:                                               ; preds = %52, %38
  %58 = load i32, i32* %11, align 4
  %59 = icmp ne i32 %58, 0
  br i1 %59, label %60, label %70

60:                                               ; preds = %57
  %61 = load i32, i32* %6, align 4
  %62 = sext i32 %61 to i64
  %63 = getelementptr inbounds i32, i32* %16, i64 %62
  %64 = load i32, i32* %63, align 4
  %65 = load i32, i32* %7, align 4
  %66 = sext i32 %65 to i64
  %67 = getelementptr inbounds i32, i32* %19, i64 %66
  store i32 %64, i32* %67, align 4
  %68 = load i32, i32* %10, align 4
  %69 = add nsw i32 %68, 1
  store i32 %69, i32* %10, align 4
  br label %70

70:                                               ; preds = %60, %57
  br label %71

71:                                               ; preds = %70
  %72 = load i32, i32* %6, align 4
  %73 = add nsw i32 %72, 1
  store i32 %73, i32* %6, align 4
  br label %33

74:                                               ; preds = %33
  %75 = getelementptr inbounds i32, i32* %19, i64 1
  %76 = load i32, i32* %75, align 4
  %77 = call i32 (i8*, ...) @printf(i8* getelementptr inbounds ([3 x i8], [3 x i8]* @.str, i64 0, i64 0), i32 %76)
  store i32 2, i32* %6, align 4
  br label %78

78:                                               ; preds = %88, %74
  %79 = load i32, i32* %6, align 4
  %80 = load i32, i32* %10, align 4
  %81 = icmp sle i32 %79, %80
  br i1 %81, label %82, label %91

82:                                               ; preds = %78
  %83 = load i32, i32* %6, align 4
  %84 = sext i32 %83 to i64
  %85 = getelementptr inbounds i32, i32* %19, i64 %84
  %86 = load i32, i32* %85, align 4
  %87 = call i32 (i8*, ...) @printf(i8* getelementptr inbounds ([4 x i8], [4 x i8]* @.str.1, i64 0, i64 0), i32 %86)
  br label %88

88:                                               ; preds = %82
  %89 = load i32, i32* %6, align 4
  %90 = add nsw i32 %89, 1
  store i32 %90, i32* %6, align 4
  br label %78

91:                                               ; preds = %78
  %92 = load i8*, i8** %3, align 8
  call void @llvm.stackrestore(i8* %92)
  %93 = load i32, i32* %1, align 4
  ret i32 %93
}

declare dso_local i32 @__isoc99_scanf(i8*, ...) #1

; Function Attrs: nounwind
declare i8* @llvm.stacksave() #2

declare dso_local i32 @printf(i8*, ...) #1

; Function Attrs: nounwind
declare void @llvm.stackrestore(i8*) #2


!llvm.module.flags = !{!0}
!llvm.ident = !{!1}

!0 = !{i32 1, !"wchar_size", i32 4}
!1 = !{!"clang version 10.0.0-4ubuntu1 "}
