; ModuleID = 'source-C-CXX/12/1161.c'
source_filename = "source-C-CXX/12/1161.c"
target datalayout = "e-m:e-p270:32:32-p271:32:32-p272:64:64-i64:64-f80:128-n8:16:32:64-S128"
target triple = "x86_64-pc-linux-gnu"

@.str = private unnamed_addr constant [3 x i8] c"%d\00", align 1
@.str.1 = private unnamed_addr constant [4 x i8] c" %d\00", align 1

; Function Attrs: nofree nounwind sspstrong uwtable
define dso_local i32 @main() local_unnamed_addr #0 {
  %1 = alloca i32, align 4
  %2 = bitcast i32* %1 to i8*
  call void @llvm.lifetime.start.p0i8(i64 4, i8* nonnull %2) #4
  %3 = call i32 (i8*, ...) @__isoc99_scanf(i8* getelementptr inbounds ([3 x i8], [3 x i8]* @.str, i64 0, i64 0), i32* nonnull %1)
  %4 = load i32, i32* %1, align 4, !tbaa !5
  %5 = zext i32 %4 to i64
  %6 = call i8* @llvm.stacksave()
  %7 = alloca i32, i64 %5, align 16
  %8 = load i32, i32* %1, align 4, !tbaa !5
  %9 = zext i32 %8 to i64
  %10 = alloca i32, i64 %9, align 16
  %11 = icmp slt i32 %8, 0
  br i1 %11, label %51, label %16

12:                                               ; preds = %16
  %13 = icmp sgt i32 %21, 0
  br i1 %13, label %14, label %51

14:                                               ; preds = %12
  %15 = zext i32 %21 to i64
  br label %24

16:                                               ; preds = %0, %16
  %17 = phi i64 [ %20, %16 ], [ 0, %0 ]
  %18 = getelementptr inbounds i32, i32* %7, i64 %17
  %19 = call i32 (i8*, ...) @__isoc99_scanf(i8* getelementptr inbounds ([3 x i8], [3 x i8]* @.str, i64 0, i64 0), i32* nonnull %18)
  %20 = add nuw nsw i64 %17, 1
  %21 = load i32, i32* %1, align 4, !tbaa !5
  %22 = sext i32 %21 to i64
  %23 = icmp slt i64 %17, %22
  br i1 %23, label %16, label %12, !llvm.loop !9

24:                                               ; preds = %14, %47
  %25 = phi i64 [ 0, %14 ], [ %49, %47 ]
  %26 = phi i32 [ 0, %14 ], [ %48, %47 ]
  %27 = icmp slt i32 %26, 1
  %28 = getelementptr inbounds i32, i32* %7, i64 %25
  %29 = load i32, i32* %28, align 4, !tbaa !5
  %30 = add i32 %26, 1
  br i1 %27, label %42, label %31

31:                                               ; preds = %24
  %32 = add nuw i32 %26, 1
  %33 = zext i32 %32 to i64
  br label %34

34:                                               ; preds = %31, %39
  %35 = phi i64 [ 1, %31 ], [ %40, %39 ]
  %36 = getelementptr inbounds i32, i32* %10, i64 %35
  %37 = load i32, i32* %36, align 4, !tbaa !5
  %38 = icmp eq i32 %29, %37
  br i1 %38, label %47, label %39

39:                                               ; preds = %34
  %40 = add nuw nsw i64 %35, 1
  %41 = icmp eq i64 %40, %33
  br i1 %41, label %42, label %34, !llvm.loop !11

42:                                               ; preds = %39, %24
  %43 = phi i32 [ %30, %24 ], [ %32, %39 ]
  %44 = phi i32 [ 1, %24 ], [ %30, %39 ]
  %45 = zext i32 %44 to i64
  %46 = getelementptr inbounds i32, i32* %10, i64 %45
  store i32 %29, i32* %46, align 4, !tbaa !5
  br label %47

47:                                               ; preds = %34, %42
  %48 = phi i32 [ %43, %42 ], [ %26, %34 ]
  %49 = add nuw nsw i64 %25, 1
  %50 = icmp eq i64 %49, %15
  br i1 %50, label %53, label %24, !llvm.loop !12

51:                                               ; preds = %12, %0
  %52 = call i32 (i8*, ...) @printf(i8* nonnull dereferenceable(1) getelementptr inbounds ([3 x i8], [3 x i8]* @.str, i64 0, i64 0), i32 undef)
  br label %68

53:                                               ; preds = %47
  %54 = getelementptr inbounds i32, i32* %10, i64 1
  %55 = load i32, i32* %54, align 4, !tbaa !5
  %56 = call i32 (i8*, ...) @printf(i8* nonnull dereferenceable(1) getelementptr inbounds ([3 x i8], [3 x i8]* @.str, i64 0, i64 0), i32 %55)
  %57 = icmp slt i32 %48, 2
  br i1 %57, label %68, label %58

58:                                               ; preds = %53
  %59 = add nuw i32 %48, 1
  %60 = zext i32 %59 to i64
  br label %61

61:                                               ; preds = %58, %61
  %62 = phi i64 [ 2, %58 ], [ %66, %61 ]
  %63 = getelementptr inbounds i32, i32* %10, i64 %62
  %64 = load i32, i32* %63, align 4, !tbaa !5
  %65 = call i32 (i8*, ...) @printf(i8* nonnull dereferenceable(1) getelementptr inbounds ([4 x i8], [4 x i8]* @.str.1, i64 0, i64 0), i32 %64)
  %66 = add nuw nsw i64 %62, 1
  %67 = icmp eq i64 %66, %60
  br i1 %67, label %68, label %61, !llvm.loop !13

68:                                               ; preds = %61, %51, %53
  call void @llvm.stackrestore(i8* %6)
  call void @llvm.lifetime.end.p0i8(i64 4, i8* nonnull %2) #4
  ret i32 0
}

; Function Attrs: argmemonly mustprogress nofree nosync nounwind willreturn
declare void @llvm.lifetime.start.p0i8(i64 immarg, i8* nocapture) #1

; Function Attrs: nofree nounwind
declare noundef i32 @__isoc99_scanf(i8* nocapture noundef readonly, ...) local_unnamed_addr #2

; Function Attrs: mustprogress nofree nosync nounwind willreturn
declare i8* @llvm.stacksave() #3

; Function Attrs: nofree nounwind
declare noundef i32 @printf(i8* nocapture noundef readonly, ...) local_unnamed_addr #2

; Function Attrs: argmemonly mustprogress nofree nosync nounwind willreturn
declare void @llvm.lifetime.end.p0i8(i64 immarg, i8* nocapture) #1

; Function Attrs: mustprogress nofree nosync nounwind willreturn
declare void @llvm.stackrestore(i8*) #3


!llvm.module.flags = !{!0, !1, !2, !3}
!llvm.ident = !{!4}

!0 = !{i32 1, !"wchar_size", i32 4}
!1 = !{i32 7, !"PIC Level", i32 2}
!2 = !{i32 7, !"PIE Level", i32 2}
!3 = !{i32 7, !"uwtable", i32 1}
!4 = !{!"clang version 13.0.0"}
!5 = !{!6, !6, i64 0}
!6 = !{!"int", !7, i64 0}
!7 = !{!"omnipotent char", !8, i64 0}
!8 = !{!"Simple C/C++ TBAA"}
!9 = distinct !{!9, !10}
!10 = !{!"llvm.loop.mustprogress"}
!11 = distinct !{!11, !10}
!12 = distinct !{!12, !10}
!13 = distinct !{!13, !10}
